; Function Attrs: mustprogress uwtable
define hidden void @_ZN5boost9iostreams6detail20file_descriptor_impl10close_implEbb(ptr nocapture noundef nonnull align 4 dereferenceable(8) %0, i1 noundef zeroext %1, i1 noundef zeroext %2) local_unnamed_addr #3 align 2 personality ptr @__gxx_personality_v0 {
  %4 = alloca %"class.std::ios_base::failure", align 8
  %5 = load i32, ptr %0, align 4, !tbaa !3
  %.not = icmp eq i32 %5, -1
  br i1 %.not, label %16, label %6

6:                                                ; preds = %3
  br i1 %1, label %7, label %.critedge

7:                                                ; preds = %6
  %8 = tail call i32 @close(i32 noundef %5)
  %9 = icmp eq i32 %8, -1
  store i32 -1, ptr %0, align 4, !tbaa !3
  %10 = getelementptr inbounds nuw i8, ptr %0, i64 4
  store i32 0, ptr %10, align 4, !tbaa !8
  %brmerge.not = and i1 %2, %9
  br i1 %brmerge.not, label %11, label %16

11:                                               ; preds = %7
  call void @llvm.lifetime.start.p0(i64 32, ptr nonnull %4) #28
  call void @_ZN5boost9iostreams6detail14system_failureB5cxx11EPKc(ptr dead_on_unwind nonnull writable sret(%"class.std::ios_base::failure") align 8 %4, ptr noundef nonnull @.str.2)
  invoke void @_ZN5boost15throw_exceptionINSt8ios_base7failureB5cxx11EEEvRKT_(ptr noundef nonnull align 8 dereferenceable(32) %4) #29
          to label %12 unwind label %13

12:                                               ; preds = %11
  unreachable

13:                                               ; preds = %11
  %14 = landingpad { ptr, i32 }
          cleanup
  call void @_ZNSt8ios_base7failureB5cxx11D1Ev(ptr noundef nonnull align 8 dereferenceable(32) %4) #28
  call void @llvm.lifetime.end.p0(i64 32, ptr nonnull %4) #28
  resume { ptr, i32 } %14

.critedge:                                        ; preds = %6
  store i32 -1, ptr %0, align 4, !tbaa !3
  %15 = getelementptr inbounds nuw i8, ptr %0, i64 4
  store i32 0, ptr %15, align 4, !tbaa !8
  br label %16

16:                                               ; preds = %.critedge, %7, %3
  ret void
}